target datalayout = "e-m:e-p270:32:32-p271:32:32-p272:64:64-i64:64-i128:128-f80:128-n8:16:32:64-S128"
target triple = "x86_64-pc-linux-gnu"

%struct.ImVec2 = type { float, float }

; Function Attrs: mustprogress nounwind uwtable
define linkonce_odr void @_ZN6ImVec2C2Eff(ptr noundef nonnull align 4 dereferenceable(8) %0, float noundef %1, float noundef %2) unnamed_addr #1 comdat align 2 {
  %4 = alloca ptr, align 8
  %5 = alloca float, align 4
  %6 = alloca float, align 4
  store ptr %0, ptr %4, align 8, !tbaa !55
  store float %1, ptr %5, align 4, !tbaa !17
  store float %2, ptr %6, align 4, !tbaa !17
  %7 = load ptr, ptr %4, align 8
  %8 = getelementptr inbounds nuw %struct.ImVec2, ptr %7, i32 0, i32 0
  %9 = load float, ptr %5, align 4, !tbaa !17
  store float %9, ptr %8, align 4, !tbaa !57
  %10 = getelementptr inbounds nuw %struct.ImVec2, ptr %7, i32 0, i32 1
  %11 = load float, ptr %6, align 4, !tbaa !17
  store float %11, ptr %10, align 4, !tbaa !58
  ret void
}

; Function Attrs: inlinehint mustprogress uwtable
define internal <2 x float> @_ZplRK6ImVec2S1_(ptr noundef nonnull align 4 dereferenceable(8) %0, ptr noundef nonnull align 4 dereferenceable(8) %1) #6 {
  %3 = alloca %struct.ImVec2, align 4
  %4 = alloca ptr, align 8
  %5 = alloca ptr, align 8
  store ptr %0, ptr %4, align 8, !tbaa !55
  store ptr %1, ptr %5, align 8, !tbaa !55
  %6 = load ptr, ptr %4, align 8, !tbaa !55
  %7 = getelementptr inbounds nuw %struct.ImVec2, ptr %6, i32 0, i32 0
  %8 = load float, ptr %7, align 4, !tbaa !57
  %9 = load ptr, ptr %5, align 8, !tbaa !55
  %10 = getelementptr inbounds nuw %struct.ImVec2, ptr %9, i32 0, i32 0
  %11 = load float, ptr %10, align 4, !tbaa !57
  %12 = fadd float %8, %11
  %13 = load ptr, ptr %4, align 8, !tbaa !55
  %14 = getelementptr inbounds nuw %struct.ImVec2, ptr %13, i32 0, i32 1
  %15 = load float, ptr %14, align 4, !tbaa !58
  %16 = load ptr, ptr %5, align 8, !tbaa !55
  %17 = getelementptr inbounds nuw %struct.ImVec2, ptr %16, i32 0, i32 1
  %18 = load float, ptr %17, align 4, !tbaa !58
  %19 = fadd float %15, %18
  call void @_ZN6ImVec2C2Eff(ptr noundef nonnull align 4 dereferenceable(8) %3, float noundef %12, float noundef %19)
  %20 = load <2 x float>, ptr %3, align 4
  ret <2 x float> %20
}

; Function Attrs: inlinehint mustprogress uwtable
define internal <2 x float> @_ZdvRK6ImVec2f(ptr noundef nonnull align 4 dereferenceable(8) %0, float noundef %1) #6 {
  %3 = alloca %struct.ImVec2, align 4
  %4 = alloca ptr, align 8
  %5 = alloca float, align 4
  store ptr %0, ptr %4, align 8, !tbaa !55
  store float %1, ptr %5, align 4, !tbaa !17
  %6 = load ptr, ptr %4, align 8, !tbaa !55
  %7 = getelementptr inbounds nuw %struct.ImVec2, ptr %6, i32 0, i32 0
  %8 = load float, ptr %7, align 4, !tbaa !57
  %9 = load float, ptr %5, align 4, !tbaa !17
  %10 = fdiv float %8, %9
  %11 = load ptr, ptr %4, align 8, !tbaa !55
  %12 = getelementptr inbounds nuw %struct.ImVec2, ptr %11, i32 0, i32 1
  %13 = load float, ptr %12, align 4, !tbaa !58
  %14 = load float, ptr %5, align 4, !tbaa !17
  %15 = fdiv float %13, %14
  call void @_ZN6ImVec2C2Eff(ptr noundef nonnull align 4 dereferenceable(8) %3, float noundef %10, float noundef %15)
  %16 = load <2 x float>, ptr %3, align 4
  ret <2 x float> %16
}

; Function Attrs: inlinehint mustprogress uwtable
define internal <2 x float> @_ZmlRK6ImVec2f(ptr noundef nonnull align 4 dereferenceable(8) %0, float noundef %1) #6 {
  %3 = alloca %struct.ImVec2, align 4
  %4 = alloca ptr, align 8
  %5 = alloca float, align 4
  store ptr %0, ptr %4, align 8, !tbaa !55
  store float %1, ptr %5, align 4, !tbaa !17
  %6 = load ptr, ptr %4, align 8, !tbaa !55
  %7 = getelementptr inbounds nuw %struct.ImVec2, ptr %6, i32 0, i32 0
  %8 = load float, ptr %7, align 4, !tbaa !57
  %9 = load float, ptr %5, align 4, !tbaa !17
  %10 = fmul float %8, %9
  %11 = load ptr, ptr %4, align 8, !tbaa !55
  %12 = getelementptr inbounds nuw %struct.ImVec2, ptr %11, i32 0, i32 1
  %13 = load float, ptr %12, align 4, !tbaa !58
  %14 = load float, ptr %5, align 4, !tbaa !17
  %15 = fmul float %13, %14
  call void @_ZN6ImVec2C2Eff(ptr noundef nonnull align 4 dereferenceable(8) %3, float noundef %10, float noundef %15)
  %16 = load <2 x float>, ptr %3, align 4
  ret <2 x float> %16
}

; Function Attrs: inlinehint mustprogress nounwind uwtable
define internal noundef float @_ZL11ImLengthSqrRK6ImVec2(ptr noundef nonnull align 4 dereferenceable(8) %0) #7 {
  %2 = alloca ptr, align 8
  store ptr %0, ptr %2, align 8, !tbaa !55
  %3 = load ptr, ptr %2, align 8, !tbaa !55
  %4 = getelementptr inbounds nuw %struct.ImVec2, ptr %3, i32 0, i32 0
  %5 = load float, ptr %4, align 4, !tbaa !57
  %6 = load ptr, ptr %2, align 8, !tbaa !55
  %7 = getelementptr inbounds nuw %struct.ImVec2, ptr %6, i32 0, i32 0
  %8 = load float, ptr %7, align 4, !tbaa !57
  %9 = load ptr, ptr %2, align 8, !tbaa !55
  %10 = getelementptr inbounds nuw %struct.ImVec2, ptr %9, i32 0, i32 1
  %11 = load float, ptr %10, align 4, !tbaa !58
  %12 = load ptr, ptr %2, align 8, !tbaa !55
  %13 = getelementptr inbounds nuw %struct.ImVec2, ptr %12, i32 0, i32 1
  %14 = load float, ptr %13, align 4, !tbaa !58
  %15 = fmul float %11, %14
  %16 = call float @llvm.fmuladd.f32(float %5, float %8, float %15)
  ret float %16
}

; Function Attrs: inlinehint mustprogress uwtable
define internal <2 x float> @_ZmiRK6ImVec2S1_(ptr noundef nonnull align 4 dereferenceable(8) %0, ptr noundef nonnull align 4 dereferenceable(8) %1) #6 {
  %3 = alloca %struct.ImVec2, align 4
  %4 = alloca ptr, align 8
  %5 = alloca ptr, align 8
  store ptr %0, ptr %4, align 8, !tbaa !55
  store ptr %1, ptr %5, align 8, !tbaa !55
  %6 = load ptr, ptr %4, align 8, !tbaa !55
  %7 = getelementptr inbounds nuw %struct.ImVec2, ptr %6, i32 0, i32 0
  %8 = load float, ptr %7, align 4, !tbaa !57
  %9 = load ptr, ptr %5, align 8, !tbaa !55
  %10 = getelementptr inbounds nuw %struct.ImVec2, ptr %9, i32 0, i32 0
  %11 = load float, ptr %10, align 4, !tbaa !57
  %12 = fsub float %8, %11
  %13 = load ptr, ptr %4, align 8, !tbaa !55
  %14 = getelementptr inbounds nuw %struct.ImVec2, ptr %13, i32 0, i32 1
  %15 = load float, ptr %14, align 4, !tbaa !58
  %16 = load ptr, ptr %5, align 8, !tbaa !55
  %17 = getelementptr inbounds nuw %struct.ImVec2, ptr %16, i32 0, i32 1
  %18 = load float, ptr %17, align 4, !tbaa !58
  %19 = fsub float %15, %18
  call void @_ZN6ImVec2C2Eff(ptr noundef nonnull align 4 dereferenceable(8) %3, float noundef %12, float noundef %19)
  %20 = load <2 x float>, ptr %3, align 4
  ret <2 x float> %20
}

; Function Attrs: mustprogress uwtable
define <2 x float> @_Z18ImLineClosestPointRK6ImVec2S1_S1_(ptr noundef nonnull align 4 dereferenceable(8) %0, ptr noundef nonnull align 4 dereferenceable(8) %1, ptr noundef nonnull align 4 dereferenceable(8) %2) #5 {
  %4 = alloca %struct.ImVec2, align 4
  %5 = alloca ptr, align 8
  %6 = alloca ptr, align 8
  %7 = alloca ptr, align 8
  %8 = alloca %struct.ImVec2, align 4
  %9 = alloca %struct.ImVec2, align 4
  %10 = alloca float, align 4
  %11 = alloca i32, align 4
  %12 = alloca float, align 4
  %13 = alloca %struct.ImVec2, align 4
  %14 = alloca %struct.ImVec2, align 4
  store ptr %0, ptr %5, align 8, !tbaa !55
  store ptr %1, ptr %6, align 8, !tbaa !55
  store ptr %2, ptr %7, align 8, !tbaa !55
  call void @llvm.lifetime.start.p0(i64 8, ptr %8) #16
  %15 = load ptr, ptr %7, align 8, !tbaa !55
  %16 = load ptr, ptr %5, align 8, !tbaa !55
  %17 = call <2 x float> @_ZmiRK6ImVec2S1_(ptr noundef nonnull align 4 dereferenceable(8) %15, ptr noundef nonnull align 4 dereferenceable(8) %16)
  store <2 x float> %17, ptr %8, align 4
  call void @llvm.lifetime.start.p0(i64 8, ptr %9) #16
  %18 = load ptr, ptr %6, align 8, !tbaa !55
  %19 = load ptr, ptr %5, align 8, !tbaa !55
  %20 = call <2 x float> @_ZmiRK6ImVec2S1_(ptr noundef nonnull align 4 dereferenceable(8) %18, ptr noundef nonnull align 4 dereferenceable(8) %19)
  store <2 x float> %20, ptr %9, align 4
  call void @llvm.lifetime.start.p0(i64 4, ptr %10) #16
  %21 = getelementptr inbounds nuw %struct.ImVec2, ptr %8, i32 0, i32 0
  %22 = load float, ptr %21, align 4, !tbaa !57
  %23 = getelementptr inbounds nuw %struct.ImVec2, ptr %9, i32 0, i32 0
  %24 = load float, ptr %23, align 4, !tbaa !57
  %25 = getelementptr inbounds nuw %struct.ImVec2, ptr %8, i32 0, i32 1
  %26 = load float, ptr %25, align 4, !tbaa !58
  %27 = getelementptr inbounds nuw %struct.ImVec2, ptr %9, i32 0, i32 1
  %28 = load float, ptr %27, align 4, !tbaa !58
  %29 = fmul float %26, %28
  %30 = call float @llvm.fmuladd.f32(float %22, float %24, float %29)
  store float %30, ptr %10, align 4, !tbaa !17
  %31 = load float, ptr %10, align 4, !tbaa !17
  %32 = fcmp olt float %31, 0.000000e+00
  br i1 %32, label %33, label %35

33:                                               ; preds = %3
  %34 = load ptr, ptr %5, align 8, !tbaa !55
  call void @llvm.memcpy.p0.p0.i64(ptr align 4 %4, ptr align 4 %34, i64 8, i1 false), !tbaa.struct !16
  store i32 1, ptr %11, align 4
  br label %59

35:                                               ; preds = %3
  call void @llvm.lifetime.start.p0(i64 4, ptr %12) #16
  %36 = getelementptr inbounds nuw %struct.ImVec2, ptr %9, i32 0, i32 0
  %37 = load float, ptr %36, align 4, !tbaa !57
  %38 = getelementptr inbounds nuw %struct.ImVec2, ptr %9, i32 0, i32 0
  %39 = load float, ptr %38, align 4, !tbaa !57
  %40 = getelementptr inbounds nuw %struct.ImVec2, ptr %9, i32 0, i32 1
  %41 = load float, ptr %40, align 4, !tbaa !58
  %42 = getelementptr inbounds nuw %struct.ImVec2, ptr %9, i32 0, i32 1
  %43 = load float, ptr %42, align 4, !tbaa !58
  %44 = fmul float %41, %43
  %45 = call float @llvm.fmuladd.f32(float %37, float %39, float %44)
  store float %45, ptr %12, align 4, !tbaa !17
  %46 = load float, ptr %10, align 4, !tbaa !17
  %47 = load float, ptr %12, align 4, !tbaa !17
  %48 = fcmp ogt float %46, %47
  br i1 %48, label %49, label %51

49:                                               ; preds = %35
  %50 = load ptr, ptr %6, align 8, !tbaa !55
  call void @llvm.memcpy.p0.p0.i64(ptr align 4 %4, ptr align 4 %50, i64 8, i1 false), !tbaa.struct !16
  store i32 1, ptr %11, align 4
  br label %58

51:                                               ; preds = %35
  %52 = load ptr, ptr %5, align 8, !tbaa !55
  call void @llvm.lifetime.start.p0(i64 8, ptr %13) #16
  call void @llvm.lifetime.start.p0(i64 8, ptr %14) #16
  %53 = load float, ptr %10, align 4, !tbaa !17
  %54 = call <2 x float> @_ZmlRK6ImVec2f(ptr noundef nonnull align 4 dereferenceable(8) %9, float noundef %53)
  store <2 x float> %54, ptr %14, align 4
  %55 = load float, ptr %12, align 4, !tbaa !17
  %56 = call <2 x float> @_ZdvRK6ImVec2f(ptr noundef nonnull align 4 dereferenceable(8) %14, float noundef %55)
  store <2 x float> %56, ptr %13, align 4
  %57 = call <2 x float> @_ZplRK6ImVec2S1_(ptr noundef nonnull align 4 dereferenceable(8) %52, ptr noundef nonnull align 4 dereferenceable(8) %13)
  store <2 x float> %57, ptr %4, align 4
  call void @llvm.lifetime.end.p0(i64 8, ptr %14) #16
  call void @llvm.lifetime.end.p0(i64 8, ptr %13) #16
  store i32 1, ptr %11, align 4
  br label %58

58:                                               ; preds = %51, %49
  call void @llvm.lifetime.end.p0(i64 4, ptr %12) #16
  br label %59

59:                                               ; preds = %58, %33
  call void @llvm.lifetime.end.p0(i64 4, ptr %10) #16
  call void @llvm.lifetime.end.p0(i64 8, ptr %9) #16
  call void @llvm.lifetime.end.p0(i64 8, ptr %8) #16
  %60 = load <2 x float>, ptr %4, align 4
  ret <2 x float> %60
}

; Function Attrs: mustprogress nounwind uwtable
define linkonce_odr void @_ZN6ImVec2C2Ev(ptr noundef nonnull align 4 dereferenceable(8) %0) unnamed_addr #1 comdat align 2 {
  %2 = alloca ptr, align 8
  store ptr %0, ptr %2, align 8, !tbaa !55
  %3 = load ptr, ptr %2, align 8
  %4 = getelementptr inbounds nuw %struct.ImVec2, ptr %3, i32 0, i32 0
  store float 0.000000e+00, ptr %4, align 4, !tbaa !57
  %5 = getelementptr inbounds nuw %struct.ImVec2, ptr %3, i32 0, i32 1
  store float 0.000000e+00, ptr %5, align 4, !tbaa !58
  ret void
}

; Function Attrs: mustprogress uwtable
define <2 x float> @_Z25ImBezierCubicClosestPointRK6ImVec2S1_S1_S1_S1_i(ptr noundef nonnull align 4 dereferenceable(8) %0, ptr noundef nonnull align 4 dereferenceable(8) %1, ptr noundef nonnull align 4 dereferenceable(8) %2, ptr noundef nonnull align 4 dereferenceable(8) %3, ptr noundef nonnull align 4 dereferenceable(8) %4, i32 noundef %5) #5 {
  %7 = alloca %struct.ImVec2, align 4
  %8 = alloca ptr, align 8
  %9 = alloca ptr, align 8
  %10 = alloca ptr, align 8
  %11 = alloca ptr, align 8
  %12 = alloca ptr, align 8
  %13 = alloca i32, align 4
  %14 = alloca %struct.ImVec2, align 4
  %15 = alloca float, align 4
  %16 = alloca float, align 4
  %17 = alloca i32, align 4
  %18 = alloca %struct.ImVec2, align 4
  %19 = alloca %struct.ImVec2, align 4
  %20 = alloca float, align 4
  %21 = alloca %struct.ImVec2, align 4
  store ptr %0, ptr %8, align 8, !tbaa !55
  store ptr %1, ptr %9, align 8, !tbaa !55
  store ptr %2, ptr %10, align 8, !tbaa !55
  store ptr %3, ptr %11, align 8, !tbaa !55
  store ptr %4, ptr %12, align 8, !tbaa !55
  store i32 %5, ptr %13, align 4, !tbaa !125
  call void @llvm.lifetime.start.p0(i64 8, ptr %14) #16
  %22 = load ptr, ptr %8, align 8, !tbaa !55
  call void @llvm.memcpy.p0.p0.i64(ptr align 4 %14, ptr align 4 %22, i64 8, i1 false), !tbaa.struct !16
  call void @_ZN6ImVec2C2Ev(ptr noundef nonnull align 4 dereferenceable(8) %7)
  call void @llvm.lifetime.start.p0(i64 4, ptr %15) #16
  store float 0x47EFFFFFE0000000, ptr %15, align 4, !tbaa !17
  call void @llvm.lifetime.start.p0(i64 4, ptr %16) #16
  %23 = load i32, ptr %13, align 4, !tbaa !125
  %24 = sitofp i32 %23 to float
  %25 = fdiv float 1.000000e+00, %24
  store float %25, ptr %16, align 4, !tbaa !17
  call void @llvm.lifetime.start.p0(i64 4, ptr %17) #16
  store i32 1, ptr %17, align 4, !tbaa !125
  br label %26

26:                                               ; preds = %52, %6
  %27 = load i32, ptr %17, align 4, !tbaa !125
  %28 = load i32, ptr %13, align 4, !tbaa !125
  %29 = icmp sle i32 %27, %28
  br i1 %29, label %31, label %30

30:                                               ; preds = %26
  call void @llvm.lifetime.end.p0(i64 4, ptr %17) #16
  br label %55

31:                                               ; preds = %26
  call void @llvm.lifetime.start.p0(i64 8, ptr %18) #16
  %32 = load ptr, ptr %8, align 8, !tbaa !55
  %33 = load ptr, ptr %9, align 8, !tbaa !55
  %34 = load ptr, ptr %10, align 8, !tbaa !55
  %35 = load ptr, ptr %11, align 8, !tbaa !55
  %36 = load float, ptr %16, align 4, !tbaa !17
  %37 = load i32, ptr %17, align 4, !tbaa !125
  %38 = sitofp i32 %37 to float
  %39 = fmul float %36, %38
  %40 = call <2 x float> @_Z17ImBezierCubicCalcRK6ImVec2S1_S1_S1_f(ptr noundef nonnull align 4 dereferenceable(8) %32, ptr noundef nonnull align 4 dereferenceable(8) %33, ptr noundef nonnull align 4 dereferenceable(8) %34, ptr noundef nonnull align 4 dereferenceable(8) %35, float noundef %39)
  store <2 x float> %40, ptr %18, align 4
  call void @llvm.lifetime.start.p0(i64 8, ptr %19) #16
  %41 = load ptr, ptr %12, align 8, !tbaa !55
  %42 = call <2 x float> @_Z18ImLineClosestPointRK6ImVec2S1_S1_(ptr noundef nonnull align 4 dereferenceable(8) %14, ptr noundef nonnull align 4 dereferenceable(8) %18, ptr noundef nonnull align 4 dereferenceable(8) %41)
  store <2 x float> %42, ptr %19, align 4
  call void @llvm.lifetime.start.p0(i64 4, ptr %20) #16
  call void @llvm.lifetime.start.p0(i64 8, ptr %21) #16
  %43 = load ptr, ptr %12, align 8, !tbaa !55
  %44 = call <2 x float> @_ZmiRK6ImVec2S1_(ptr noundef nonnull align 4 dereferenceable(8) %43, ptr noundef nonnull align 4 dereferenceable(8) %19)
  store <2 x float> %44, ptr %21, align 4
  %45 = call noundef float @_ZL11ImLengthSqrRK6ImVec2(ptr noundef nonnull align 4 dereferenceable(8) %21)
  call void @llvm.lifetime.end.p0(i64 8, ptr %21) #16
  store float %45, ptr %20, align 4, !tbaa !17
  %46 = load float, ptr %20, align 4, !tbaa !17
  %47 = load float, ptr %15, align 4, !tbaa !17
  %48 = fcmp olt float %46, %47
  br i1 %48, label %49, label %51

49:                                               ; preds = %31
  call void @llvm.memcpy.p0.p0.i64(ptr align 4 %7, ptr align 4 %19, i64 8, i1 false), !tbaa.struct !16
  %50 = load float, ptr %20, align 4, !tbaa !17
  store float %50, ptr %15, align 4, !tbaa !17
  br label %51

51:                                               ; preds = %49, %31
  call void @llvm.memcpy.p0.p0.i64(ptr align 4 %14, ptr align 4 %18, i64 8, i1 false), !tbaa.struct !16
  call void @llvm.lifetime.end.p0(i64 4, ptr %20) #16
  call void @llvm.lifetime.end.p0(i64 8, ptr %19) #16
  call void @llvm.lifetime.end.p0(i64 8, ptr %18) #16
  br label %52

52:                                               ; preds = %51
  %53 = load i32, ptr %17, align 4, !tbaa !125
  %54 = add nsw i32 %53, 1
  store i32 %54, ptr %17, align 4, !tbaa !125
  br label %26, !llvm.loop !294

55:                                               ; preds = %30
  call void @llvm.lifetime.end.p0(i64 4, ptr %16) #16
  call void @llvm.lifetime.end.p0(i64 4, ptr %15) #16
  call void @llvm.lifetime.end.p0(i64 8, ptr %14) #16
  %56 = load <2 x float>, ptr %7, align 4
  ret <2 x float> %56
}