; Function Attrs: mustprogress uwtable
define <2 x float> @_Z25ImBezierCubicClosestPointRK6ImVec2S1_S1_S1_S1_i(ptr noundef nonnull align 4 dereferenceable(8) %0, ptr noundef nonnull align 4 dereferenceable(8) %1, ptr noundef nonnull align 4 dereferenceable(8) %2, ptr noundef nonnull align 4 dereferenceable(8) %3, ptr noundef nonnull readonly align 4 captures(none) dereferenceable(8) %4, i32 noundef %5) local_unnamed_addr #12 {
  %7 = sitofp i32 %5 to float
  %8 = fdiv float 1.000000e+00, %7
  %.not34 = icmp slt i32 %5, 1
  br i1 %.not34, label %._crit_edge, label %.lr.ph

.lr.ph:                                           ; preds = %6
  %9 = load <2 x float>, ptr %0, align 4
  %10 = getelementptr inbounds nuw i8, ptr %4, i64 4
  br label %11

._crit_edge:                                      ; preds = %_Z18ImLineClosestPointRK6ImVec2S1_S1_.exit, %6
  %.sroa.031.0.lcssa = phi <2 x float> [ zeroinitializer, %6 ], [ %.sroa.031.1, %_Z18ImLineClosestPointRK6ImVec2S1_S1_.exit ]
  ret <2 x float> %.sroa.031.0.lcssa

11:                                               ; preds = %.lr.ph, %_Z18ImLineClosestPointRK6ImVec2S1_S1_.exit
  %.038 = phi float [ 0x47EFFFFFE0000000, %.lr.ph ], [ %.1, %_Z18ImLineClosestPointRK6ImVec2S1_S1_.exit ]
  %.01537 = phi i32 [ 1, %.lr.ph ], [ %39, %_Z18ImLineClosestPointRK6ImVec2S1_S1_.exit ]
  %.sroa.031.036 = phi <2 x float> [ zeroinitializer, %.lr.ph ], [ %.sroa.031.1, %_Z18ImLineClosestPointRK6ImVec2S1_S1_.exit ]
  %.sroa.027.035 = phi <2 x float> [ %9, %.lr.ph ], [ %14, %_Z18ImLineClosestPointRK6ImVec2S1_S1_.exit ]
  %12 = uitofp nneg i32 %.01537 to float
  %13 = fmul float %8, %12
  %14 = tail call <2 x float> @_Z17ImBezierCubicCalcRK6ImVec2S1_S1_S1_f(ptr noundef nonnull align 4 dereferenceable(8) %0, ptr noundef nonnull align 4 dereferenceable(8) %1, ptr noundef nonnull align 4 dereferenceable(8) %2, ptr noundef nonnull align 4 dereferenceable(8) %3, float noundef %13)
  %.val16.i = load float, ptr %4, align 4, !tbaa !50
  %.val17.i = load float, ptr %10, align 4, !tbaa !51
  %.sroa.027.0.vec.extract = extractelement <2 x float> %.sroa.027.035, i64 0
  %.sroa.027.4.vec.extract = extractelement <2 x float> %.sroa.027.035, i64 1
  %15 = fsub float %.val16.i, %.sroa.027.0.vec.extract
  %16 = fsub float %.val17.i, %.sroa.027.4.vec.extract
  %.sroa.024.4.vec.extract = extractelement <2 x float> %14, i64 1
  %17 = fsub <2 x float> %14, %.sroa.027.035
  %18 = extractelement <2 x float> %17, i64 0
  %19 = fsub float %.sroa.024.4.vec.extract, %.sroa.027.4.vec.extract
  %20 = fmul float %19, %16
  %21 = tail call float @llvm.fmuladd.f32(float %15, float %18, float %20)
  %22 = fcmp olt float %21, 0.000000e+00
  br i1 %22, label %_Z18ImLineClosestPointRK6ImVec2S1_S1_.exit, label %23

23:                                               ; preds = %11
  %.sroa.024.0.vec.extract = extractelement <2 x float> %14, i64 0
  %24 = fmul float %19, %19
  %25 = tail call float @llvm.fmuladd.f32(float %18, float %18, float %24)
  %26 = fcmp ogt float %21, %25
  br i1 %26, label %_Z18ImLineClosestPointRK6ImVec2S1_S1_.exit, label %27

27:                                               ; preds = %23
  %28 = fmul float %18, %21
  %29 = fmul float %19, %21
  %30 = fdiv float %28, %25
  %31 = fdiv float %29, %25
  %32 = fadd float %.sroa.027.0.vec.extract, %30
  %33 = fadd float %.sroa.027.4.vec.extract, %31
  %.sroa.0.0.vec.insert.i36.i = insertelement <2 x float> poison, float %32, i64 0
  %.sroa.0.4.vec.insert.i37.i = insertelement <2 x float> %.sroa.0.0.vec.insert.i36.i, float %33, i64 1
  br label %_Z18ImLineClosestPointRK6ImVec2S1_S1_.exit

_Z18ImLineClosestPointRK6ImVec2S1_S1_.exit:       ; preds = %23, %11, %27
  %.sroa.022.4.vec.extract.pre-phi = phi float [ %.sroa.024.4.vec.extract, %23 ], [ %.sroa.027.4.vec.extract, %11 ], [ %33, %27 ]
  %.sroa.022.0.vec.extract.pre-phi = phi float [ %.sroa.024.0.vec.extract, %23 ], [ %.sroa.027.0.vec.extract, %11 ], [ %32, %27 ]
  %.sroa.012.0.i = phi <2 x float> [ %14, %23 ], [ %.sroa.027.035, %11 ], [ %.sroa.0.4.vec.insert.i37.i, %27 ]
  %34 = fsub float %.val16.i, %.sroa.022.0.vec.extract.pre-phi
  %35 = fsub float %.val17.i, %.sroa.022.4.vec.extract.pre-phi
  %36 = fmul float %35, %35
  %37 = tail call noundef float @llvm.fmuladd.f32(float %34, float %34, float %36)
  %38 = fcmp olt float %37, %.038
  %.sroa.031.1 = select i1 %38, <2 x float> %.sroa.012.0.i, <2 x float> %.sroa.031.036
  %.1 = select i1 %38, float %37, float %.038
  %39 = add nuw i32 %.01537, 1
  %exitcond.not = icmp eq i32 %.01537, %5
  br i1 %exitcond.not, label %._crit_edge, label %11, !llvm.loop !248
}